; Function Attrs: mustprogress nounwind uwtable
define dso_local void @_ZN3igl3xml15XMLSerializableD2Ev(ptr noundef nonnull align 8 captures(none) dereferenceable(40) initializes((0, 9)) %0) unnamed_addr #4 align 2 personality ptr @__gxx_personality_v0 {
  store ptr getelementptr inbounds nuw inrange(-16, 88) (i8, ptr @_ZTVN3igl3xml15XMLSerializableE, i64 16), ptr %0, align 8, !tbaa !4
  %2 = getelementptr inbounds nuw i8, ptr %0, i64 8
  store i8 0, ptr %2, align 8, !tbaa !7
  %3 = getelementptr inbounds nuw i8, ptr %0, i64 16
  %4 = load ptr, ptr %3, align 8, !tbaa !22
  %5 = getelementptr inbounds nuw i8, ptr %0, i64 24
  %6 = load ptr, ptr %5, align 8, !tbaa !23
  %.not.i.i = icmp eq ptr %6, %4
  br i1 %.not.i.i, label %_ZNSt6vectorIPN3igl3xml19XMLSerializableBaseESaIS3_EE5clearEv.exit, label %_ZSt8_DestroyIPPN3igl3xml19XMLSerializableBaseES3_EvT_S5_RSaIT0_E.exit.i.i

_ZSt8_DestroyIPPN3igl3xml19XMLSerializableBaseES3_EvT_S5_RSaIT0_E.exit.i.i: ; preds = %1
  store ptr %4, ptr %5, align 8, !tbaa !23
  br label %_ZNSt6vectorIPN3igl3xml19XMLSerializableBaseESaIS3_EE5clearEv.exit

_ZNSt6vectorIPN3igl3xml19XMLSerializableBaseESaIS3_EE5clearEv.exit: ; preds = %1, %_ZSt8_DestroyIPPN3igl3xml19XMLSerializableBaseES3_EvT_S5_RSaIT0_E.exit.i.i
  %.not.i.i.i = icmp eq ptr %4, null
  br i1 %.not.i.i.i, label %_ZNSt6vectorIPN3igl3xml19XMLSerializableBaseESaIS3_EED2Ev.exit, label %7

7:                                                ; preds = %_ZNSt6vectorIPN3igl3xml19XMLSerializableBaseESaIS3_EE5clearEv.exit
  %8 = getelementptr inbounds nuw i8, ptr %0, i64 32
  %9 = load ptr, ptr %8, align 8, !tbaa !31
  %10 = ptrtoint ptr %9 to i64
  %11 = ptrtoint ptr %4 to i64
  %12 = sub i64 %10, %11
  tail call void @_ZdlPvm(ptr noundef nonnull %4, i64 noundef %12) #24
  br label %_ZNSt6vectorIPN3igl3xml19XMLSerializableBaseESaIS3_EED2Ev.exit

_ZNSt6vectorIPN3igl3xml19XMLSerializableBaseESaIS3_EED2Ev.exit: ; preds = %_ZNSt6vectorIPN3igl3xml19XMLSerializableBaseESaIS3_EE5clearEv.exit, %7
  ret void
}